target datalayout = "e-m:e-p270:32:32-p271:32:32-p272:64:64-i64:64-i128:128-f80:128-n8:16:32:64-S128"
target triple = "x86_64-pc-linux-gnu"

%struct._GtkDarktableDrawingArea = type { %struct._GtkDrawingArea, double, i32 }
%struct._GtkDrawingArea = type { %struct._GtkWidget, ptr }
%struct._GtkWidget = type { %struct._GObject, ptr }
%struct._GObject = type { %struct._GTypeInstance, i32, ptr }
%struct._GTypeInstance = type { ptr }

@dtgtk_drawing_area_get_type.static_g_define_type_id = internal global i64 0, align 8

; Function Attrs: nounwind uwtable
define i64 @dtgtk_drawing_area_get_type() #0 {
  %1 = alloca i32, align 4
  %2 = alloca i64, align 8
  %3 = alloca ptr, align 8
  %4 = alloca i64, align 8
  %5 = alloca i64, align 8
  call void @llvm.lifetime.start.p0(i64 8, ptr %2) #6
  call void @llvm.lifetime.start.p0(i64 8, ptr %3) #6
  store ptr @dtgtk_drawing_area_get_type.static_g_define_type_id, ptr %3, align 8, !tbaa !6
  %6 = load ptr, ptr %3, align 8, !tbaa !6
  %7 = load atomic i64, ptr %6 seq_cst, align 8
  store i64 %7, ptr %2, align 8
  %8 = load i64, ptr %2, align 8, !tbaa !11
  store i64 %8, ptr %4, align 8, !tbaa !11
  call void @llvm.lifetime.end.p0(i64 8, ptr %3) #6
  call void @llvm.lifetime.end.p0(i64 8, ptr %2) #6
  %9 = load i64, ptr %4, align 8, !tbaa !11
  %10 = icmp ne i64 %9, 0
  br i1 %10, label %14, label %11

11:                                               ; preds = %0
  %12 = call i32 @g_once_init_enter(ptr noundef @dtgtk_drawing_area_get_type.static_g_define_type_id)
  %13 = icmp ne i32 %12, 0
  br label %14

14:                                               ; preds = %11, %0
  %15 = phi i1 [ false, %0 ], [ %13, %11 ]
  %16 = zext i1 %15 to i32
  store i32 %16, ptr %1, align 4, !tbaa !13
  %17 = load i32, ptr %1, align 4, !tbaa !13
  %18 = icmp ne i32 %17, 0
  br i1 %18, label %19, label %22

19:                                               ; preds = %14
  call void @llvm.lifetime.start.p0(i64 8, ptr %5) #6
  %20 = call i64 @dtgtk_drawing_area_get_type_once()
  store i64 %20, ptr %5, align 8, !tbaa !11
  %21 = load i64, ptr %5, align 8, !tbaa !11
  call void @g_once_init_leave(ptr noundef @dtgtk_drawing_area_get_type.static_g_define_type_id, i64 noundef %21)
  call void @llvm.lifetime.end.p0(i64 8, ptr %5) #6
  br label %22

22:                                               ; preds = %19, %14
  %23 = load i64, ptr @dtgtk_drawing_area_get_type.static_g_define_type_id, align 8, !tbaa !11
  ret i64 %23
}

; Function Attrs: inlinehint nounwind uwtable
define internal ptr @DTGTK_DRAWING_AREA(ptr noundef %0) #4 {
  %2 = alloca ptr, align 8
  store ptr %0, ptr %2, align 8, !tbaa !31
  %3 = load ptr, ptr %2, align 8, !tbaa !31
  %4 = call i64 @dtgtk_drawing_area_get_type()
  %5 = call ptr @g_type_check_instance_cast(ptr noundef %3, i64 noundef %4)
  ret ptr %5
}

; Function Attrs: nounwind uwtable
define internal void @dtgtk_drawing_area_get_preferred_height_for_width(ptr noundef %0, i32 noundef %1, ptr noundef %2, ptr noundef %3) #0 {
  %5 = alloca ptr, align 8
  %6 = alloca i32, align 4
  %7 = alloca ptr, align 8
  %8 = alloca ptr, align 8
  %9 = alloca ptr, align 8
  store ptr %0, ptr %5, align 8, !tbaa !29
  store i32 %1, ptr %6, align 4, !tbaa !13
  store ptr %2, ptr %7, align 8, !tbaa !41
  store ptr %3, ptr %8, align 8, !tbaa !41
  call void @llvm.lifetime.start.p0(i64 8, ptr %9) #6
  %10 = load ptr, ptr %5, align 8, !tbaa !29
  %11 = call ptr @DTGTK_DRAWING_AREA(ptr noundef %10)
  store ptr %11, ptr %9, align 8, !tbaa !17
  %12 = load ptr, ptr %9, align 8, !tbaa !17
  %13 = getelementptr inbounds nuw %struct._GtkDarktableDrawingArea, ptr %12, i32 0, i32 2
  %14 = load i32, ptr %13, align 8, !tbaa !28
  %15 = icmp eq i32 %14, 0
  br i1 %15, label %16, label %20

16:                                               ; preds = %4
  %17 = load i32, ptr %6, align 4, !tbaa !13
  %18 = load ptr, ptr %8, align 8, !tbaa !41
  store i32 %17, ptr %18, align 4, !tbaa !13
  %19 = load ptr, ptr %7, align 8, !tbaa !41
  store i32 %17, ptr %19, align 4, !tbaa !13
  br label %42

20:                                               ; preds = %4
  %21 = load ptr, ptr %9, align 8, !tbaa !17
  %22 = getelementptr inbounds nuw %struct._GtkDarktableDrawingArea, ptr %21, i32 0, i32 2
  %23 = load i32, ptr %22, align 8, !tbaa !28
  %24 = icmp eq i32 %23, -1
  br i1 %24, label %25, label %35

25:                                               ; preds = %20
  %26 = load i32, ptr %6, align 4, !tbaa !13
  %27 = sitofp i32 %26 to double
  %28 = load ptr, ptr %9, align 8, !tbaa !17
  %29 = getelementptr inbounds nuw %struct._GtkDarktableDrawingArea, ptr %28, i32 0, i32 1
  %30 = load double, ptr %29, align 8, !tbaa !19
  %31 = fmul reassoc nsz arcp contract afn double %27, %30
  %32 = fptosi double %31 to i32
  %33 = load ptr, ptr %8, align 8, !tbaa !41
  store i32 %32, ptr %33, align 4, !tbaa !13
  %34 = load ptr, ptr %7, align 8, !tbaa !41
  store i32 %32, ptr %34, align 4, !tbaa !13
  br label %41

35:                                               ; preds = %20
  %36 = load ptr, ptr %9, align 8, !tbaa !17
  %37 = getelementptr inbounds nuw %struct._GtkDarktableDrawingArea, ptr %36, i32 0, i32 2
  %38 = load i32, ptr %37, align 8, !tbaa !28
  %39 = load ptr, ptr %8, align 8, !tbaa !41
  store i32 %38, ptr %39, align 4, !tbaa !13
  %40 = load ptr, ptr %7, align 8, !tbaa !41
  store i32 %38, ptr %40, align 4, !tbaa !13
  br label %41

41:                                               ; preds = %35, %25
  br label %42

42:                                               ; preds = %41, %16
  call void @llvm.lifetime.end.p0(i64 8, ptr %9) #6
  ret void
}