; Function Attrs: nounwind uwtable
define internal void @dtgtk_drawing_area_get_preferred_height_for_width(ptr noundef %0, i32 noundef %1, ptr noundef writeonly captures(none) initializes((0, 4)) %2, ptr noundef writeonly captures(none) initializes((0, 4)) %3) #0 {
  %5 = load atomic i64, ptr @dtgtk_drawing_area_get_type.static_g_define_type_id seq_cst, align 8
  %.not.i.i = icmp eq i64 %5, 0
  br i1 %.not.i.i, label %6, label %DTGTK_DRAWING_AREA.exit

6:                                                ; preds = %4
  %7 = tail call i32 @g_once_init_enter(ptr noundef nonnull @dtgtk_drawing_area_get_type.static_g_define_type_id) #5
  %.not4.i.i = icmp eq i32 %7, 0
  br i1 %.not4.i.i, label %DTGTK_DRAWING_AREA.exit, label %8

8:                                                ; preds = %6
  %9 = tail call fastcc i64 @dtgtk_drawing_area_get_type_once()
  tail call void @g_once_init_leave(ptr noundef nonnull @dtgtk_drawing_area_get_type.static_g_define_type_id, i64 noundef %9) #5
  br label %DTGTK_DRAWING_AREA.exit

DTGTK_DRAWING_AREA.exit:                          ; preds = %4, %6, %8
  %10 = load i64, ptr @dtgtk_drawing_area_get_type.static_g_define_type_id, align 8, !tbaa !6
  %11 = tail call ptr @g_type_check_instance_cast(ptr noundef %0, i64 noundef %10) #5
  %12 = getelementptr inbounds nuw i8, ptr %11, i64 48
  %13 = load i32, ptr %12, align 8, !tbaa !22
  switch i32 %13, label %20 [
    i32 0, label %21
    i32 -1, label %14
  ]

14:                                               ; preds = %DTGTK_DRAWING_AREA.exit
  %15 = sitofp i32 %1 to double
  %16 = getelementptr inbounds nuw i8, ptr %11, i64 40
  %17 = load double, ptr %16, align 8, !tbaa !10
  %18 = fmul reassoc nsz arcp contract afn double %17, %15
  %19 = fptosi double %18 to i32
  br label %21

20:                                               ; preds = %DTGTK_DRAWING_AREA.exit
  br label %21

21:                                               ; preds = %DTGTK_DRAWING_AREA.exit, %14, %20
  %.sink12 = phi i32 [ %19, %14 ], [ %13, %20 ], [ %1, %DTGTK_DRAWING_AREA.exit ]
  store i32 %.sink12, ptr %3, align 4, !tbaa !24
  store i32 %.sink12, ptr %2, align 4, !tbaa !24
  ret void
}